; ModuleID = '55/1523.c'
source_filename = "55/1523.c"
target datalayout = "e-m:e-p270:32:32-p271:32:32-p272:64:64-i64:64-f80:128-n8:16:32:64-S128"
target triple = "x86_64-pc-linux-gnu"

@.str = private unnamed_addr constant [7 x i8] c"%d%s%d\00", align 1
@.str.1 = private unnamed_addr constant [3 x i8] c"%c\00", align 1

; Function Attrs: noinline nounwind uwtable
define dso_local i32 @main() #0 {
  %1 = alloca i32, align 4
  %2 = alloca i32, align 4
  %3 = alloca i32, align 4
  %4 = alloca i32, align 4
  %5 = alloca [10000 x i32], align 16
  %6 = alloca [10000 x i32], align 16
  %7 = alloca i32, align 4
  %8 = alloca i32, align 4
  %9 = alloca [10000 x i8], align 16
  %10 = alloca [10000 x i8], align 16
  store i32 0, i32* %1, align 4
  store i32 0, i32* %7, align 4
  %11 = getelementptr inbounds [10000 x i8], [10000 x i8]* %9, i64 0, i64 0
  %12 = call i32 (i8*, ...) @__isoc99_scanf(i8* getelementptr inbounds ([7 x i8], [7 x i8]* @.str, i64 0, i64 0), i32* %2, i8* %11, i32* %3)
  %13 = getelementptr inbounds [10000 x i8], [10000 x i8]* %9, i64 0, i64 0
  %14 = call i64 @strlen(i8* %13) #4
  %15 = trunc i64 %14 to i32
  store i32 %15, i32* %8, align 4
  store i32 0, i32* %4, align 4
  br label %16

16:                                               ; preds = %80, %0
  %17 = load i32, i32* %4, align 4
  %18 = load i32, i32* %8, align 4
  %19 = icmp slt i32 %17, %18
  br i1 %19, label %20, label %83

20:                                               ; preds = %16
  %21 = load i32, i32* %4, align 4
  %22 = sext i32 %21 to i64
  %23 = getelementptr inbounds [10000 x i8], [10000 x i8]* %9, i64 0, i64 %22
  %24 = load i8, i8* %23, align 1
  %25 = sext i8 %24 to i32
  %26 = icmp slt i32 %25, 123
  br i1 %26, label %27, label %44

27:                                               ; preds = %20
  %28 = load i32, i32* %4, align 4
  %29 = sext i32 %28 to i64
  %30 = getelementptr inbounds [10000 x i8], [10000 x i8]* %9, i64 0, i64 %29
  %31 = load i8, i8* %30, align 1
  %32 = sext i8 %31 to i32
  %33 = icmp sgt i32 %32, 96
  br i1 %33, label %34, label %44

34:                                               ; preds = %27
  %35 = load i32, i32* %4, align 4
  %36 = sext i32 %35 to i64
  %37 = getelementptr inbounds [10000 x i8], [10000 x i8]* %9, i64 0, i64 %36
  %38 = load i8, i8* %37, align 1
  %39 = sext i8 %38 to i32
  %40 = sub nsw i32 %39, 87
  %41 = load i32, i32* %4, align 4
  %42 = sext i32 %41 to i64
  %43 = getelementptr inbounds [10000 x i32], [10000 x i32]* %5, i64 0, i64 %42
  store i32 %40, i32* %43, align 4
  br label %79

44:                                               ; preds = %27, %20
  %45 = load i32, i32* %4, align 4
  %46 = sext i32 %45 to i64
  %47 = getelementptr inbounds [10000 x i8], [10000 x i8]* %9, i64 0, i64 %46
  %48 = load i8, i8* %47, align 1
  %49 = sext i8 %48 to i32
  %50 = icmp slt i32 %49, 91
  br i1 %50, label %51, label %68

51:                                               ; preds = %44
  %52 = load i32, i32* %4, align 4
  %53 = sext i32 %52 to i64
  %54 = getelementptr inbounds [10000 x i8], [10000 x i8]* %9, i64 0, i64 %53
  %55 = load i8, i8* %54, align 1
  %56 = sext i8 %55 to i32
  %57 = icmp sgt i32 %56, 64
  br i1 %57, label %58, label %68

58:                                               ; preds = %51
  %59 = load i32, i32* %4, align 4
  %60 = sext i32 %59 to i64
  %61 = getelementptr inbounds [10000 x i8], [10000 x i8]* %9, i64 0, i64 %60
  %62 = load i8, i8* %61, align 1
  %63 = sext i8 %62 to i32
  %64 = sub nsw i32 %63, 55
  %65 = load i32, i32* %4, align 4
  %66 = sext i32 %65 to i64
  %67 = getelementptr inbounds [10000 x i32], [10000 x i32]* %5, i64 0, i64 %66
  store i32 %64, i32* %67, align 4
  br label %78

68:                                               ; preds = %51, %44
  %69 = load i32, i32* %4, align 4
  %70 = sext i32 %69 to i64
  %71 = getelementptr inbounds [10000 x i8], [10000 x i8]* %9, i64 0, i64 %70
  %72 = load i8, i8* %71, align 1
  %73 = sext i8 %72 to i32
  %74 = sub nsw i32 %73, 48
  %75 = load i32, i32* %4, align 4
  %76 = sext i32 %75 to i64
  %77 = getelementptr inbounds [10000 x i32], [10000 x i32]* %5, i64 0, i64 %76
  store i32 %74, i32* %77, align 4
  br label %78

78:                                               ; preds = %68, %58
  br label %79

79:                                               ; preds = %78, %34
  br label %80

80:                                               ; preds = %79
  %81 = load i32, i32* %4, align 4
  %82 = add nsw i32 %81, 1
  store i32 %82, i32* %4, align 4
  br label %16

83:                                               ; preds = %16
  store i32 0, i32* %4, align 4
  br label %84

84:                                               ; preds = %107, %83
  %85 = load i32, i32* %4, align 4
  %86 = load i32, i32* %8, align 4
  %87 = icmp slt i32 %85, %86
  br i1 %87, label %88, label %110

88:                                               ; preds = %84
  %89 = load i32, i32* %4, align 4
  %90 = sext i32 %89 to i64
  %91 = getelementptr inbounds [10000 x i32], [10000 x i32]* %5, i64 0, i64 %90
  %92 = load i32, i32* %91, align 4
  %93 = sitofp i32 %92 to double
  %94 = load i32, i32* %2, align 4
  %95 = sitofp i32 %94 to double
  %96 = load i32, i32* %8, align 4
  %97 = sub nsw i32 %96, 1
  %98 = load i32, i32* %4, align 4
  %99 = sub nsw i32 %97, %98
  %100 = sitofp i32 %99 to double
  %101 = call double @pow(double %95, double %100) #5
  %102 = fmul double %93, %101
  %103 = load i32, i32* %7, align 4
  %104 = sitofp i32 %103 to double
  %105 = fadd double %104, %102
  %106 = fptosi double %105 to i32
  store i32 %106, i32* %7, align 4
  br label %107

107:                                              ; preds = %88
  %108 = load i32, i32* %4, align 4
  %109 = add nsw i32 %108, 1
  store i32 %109, i32* %4, align 4
  br label %84

110:                                              ; preds = %84
  store i32 0, i32* %4, align 4
  br label %111

111:                                              ; preds = %127, %110
  %112 = load i32, i32* %7, align 4
  %113 = load i32, i32* %3, align 4
  %114 = srem i32 %112, %113
  %115 = load i32, i32* %4, align 4
  %116 = sext i32 %115 to i64
  %117 = getelementptr inbounds [10000 x i32], [10000 x i32]* %6, i64 0, i64 %116
  store i32 %114, i32* %117, align 4
  %118 = load i32, i32* %7, align 4
  %119 = load i32, i32* %3, align 4
  %120 = sdiv i32 %118, %119
  store i32 %120, i32* %7, align 4
  %121 = load i32, i32* %7, align 4
  %122 = icmp eq i32 %121, 0
  br i1 %122, label %123, label %126

123:                                              ; preds = %111
  %124 = load i32, i32* %4, align 4
  %125 = add nsw i32 %124, 1
  store i32 %125, i32* %8, align 4
  br label %130

126:                                              ; preds = %111
  br label %127

127:                                              ; preds = %126
  %128 = load i32, i32* %4, align 4
  %129 = add nsw i32 %128, 1
  store i32 %129, i32* %4, align 4
  br label %111

130:                                              ; preds = %123
  %131 = load i32, i32* %8, align 4
  %132 = sub nsw i32 %131, 1
  store i32 %132, i32* %4, align 4
  br label %133

133:                                              ; preds = %175, %130
  %134 = load i32, i32* %4, align 4
  %135 = icmp sge i32 %134, 0
  br i1 %135, label %136, label %178

136:                                              ; preds = %133
  %137 = load i32, i32* %4, align 4
  %138 = sext i32 %137 to i64
  %139 = getelementptr inbounds [10000 x i32], [10000 x i32]* %6, i64 0, i64 %138
  %140 = load i32, i32* %139, align 4
  %141 = icmp sge i32 %140, 0
  br i1 %141, label %142, label %161

142:                                              ; preds = %136
  %143 = load i32, i32* %4, align 4
  %144 = sext i32 %143 to i64
  %145 = getelementptr inbounds [10000 x i32], [10000 x i32]* %6, i64 0, i64 %144
  %146 = load i32, i32* %145, align 4
  %147 = icmp slt i32 %146, 10
  br i1 %147, label %148, label %161

148:                                              ; preds = %142
  %149 = load i32, i32* %4, align 4
  %150 = sext i32 %149 to i64
  %151 = getelementptr inbounds [10000 x i32], [10000 x i32]* %6, i64 0, i64 %150
  %152 = load i32, i32* %151, align 4
  %153 = add nsw i32 %152, 48
  %154 = trunc i32 %153 to i8
  %155 = load i32, i32* %8, align 4
  %156 = sub nsw i32 %155, 1
  %157 = load i32, i32* %4, align 4
  %158 = sub nsw i32 %156, %157
  %159 = sext i32 %158 to i64
  %160 = getelementptr inbounds [10000 x i8], [10000 x i8]* %10, i64 0, i64 %159
  store i8 %154, i8* %160, align 1
  br label %174

161:                                              ; preds = %142, %136
  %162 = load i32, i32* %4, align 4
  %163 = sext i32 %162 to i64
  %164 = getelementptr inbounds [10000 x i32], [10000 x i32]* %6, i64 0, i64 %163
  %165 = load i32, i32* %164, align 4
  %166 = add nsw i32 %165, 55
  %167 = trunc i32 %166 to i8
  %168 = load i32, i32* %8, align 4
  %169 = sub nsw i32 %168, 1
  %170 = load i32, i32* %4, align 4
  %171 = sub nsw i32 %169, %170
  %172 = sext i32 %171 to i64
  %173 = getelementptr inbounds [10000 x i8], [10000 x i8]* %10, i64 0, i64 %172
  store i8 %167, i8* %173, align 1
  br label %174

174:                                              ; preds = %161, %148
  br label %175

175:                                              ; preds = %174
  %176 = load i32, i32* %4, align 4
  %177 = add nsw i32 %176, -1
  store i32 %177, i32* %4, align 4
  br label %133

178:                                              ; preds = %133
  store i32 0, i32* %4, align 4
  br label %179

179:                                              ; preds = %190, %178
  %180 = load i32, i32* %4, align 4
  %181 = load i32, i32* %8, align 4
  %182 = icmp slt i32 %180, %181
  br i1 %182, label %183, label %193

183:                                              ; preds = %179
  %184 = load i32, i32* %4, align 4
  %185 = sext i32 %184 to i64
  %186 = getelementptr inbounds [10000 x i8], [10000 x i8]* %10, i64 0, i64 %185
  %187 = load i8, i8* %186, align 1
  %188 = sext i8 %187 to i32
  %189 = call i32 (i8*, ...) @printf(i8* getelementptr inbounds ([3 x i8], [3 x i8]* @.str.1, i64 0, i64 0), i32 %188)
  br label %190

190:                                              ; preds = %183
  %191 = load i32, i32* %4, align 4
  %192 = add nsw i32 %191, 1
  store i32 %192, i32* %4, align 4
  br label %179

193:                                              ; preds = %179
  ret i32 0
}

declare dso_local i32 @__isoc99_scanf(i8*, ...) #1

; Function Attrs: nounwind readonly
declare dso_local i64 @strlen(i8*) #2

; Function Attrs: nounwind
declare dso_local double @pow(double, double) #3

declare dso_local i32 @printf(i8*, ...) #1


!llvm.module.flags = !{!0}
!llvm.ident = !{!1}

!0 = !{i32 1, !"wchar_size", i32 4}
!1 = !{!"clang version 10.0.0-4ubuntu1 "}
